target datalayout = "e-m:e-p270:32:32-p271:32:32-p272:64:64-i64:64-i128:128-f80:128-n8:16:32:64-S128"
target triple = "x86_64-pc-linux-gnu"

%struct.ident_t = type { i32, i32, i32, i32, ptr }
%"class.std::vector.11" = type { %"struct.std::_Vector_base.12" }
%"struct.std::_Vector_base.12" = type { %"struct.std::_Vector_base<float, std::allocator<float>>::_Vector_impl" }
%"struct.std::_Vector_base<float, std::allocator<float>>::_Vector_impl" = type { %"struct.std::_Vector_base<float, std::allocator<float>>::_Vector_impl_data" }
%"struct.std::_Vector_base<float, std::allocator<float>>::_Vector_impl_data" = type { ptr, ptr, ptr }
%"struct.faiss::AdditiveQuantizer" = type <{ %"struct.faiss::Quantizer", i64, %"class.std::vector", %"class.std::vector.11", %"class.std::vector", i64, i64, i64, i8, i8, i8, [5 x i8], %"struct.faiss::IndexFlat1D", %"class.std::vector.11", i64, i32, float, float, [4 x i8] }>
%"struct.faiss::Quantizer" = type { ptr, i64, i64 }
%"class.std::vector" = type { %"struct.std::_Vector_base" }
%"struct.std::_Vector_base" = type { %"struct.std::_Vector_base<unsigned long, std::allocator<unsigned long>>::_Vector_impl" }
%"struct.std::_Vector_base<unsigned long, std::allocator<unsigned long>>::_Vector_impl" = type { %"struct.std::_Vector_base<unsigned long, std::allocator<unsigned long>>::_Vector_impl_data" }
%"struct.std::_Vector_base<unsigned long, std::allocator<unsigned long>>::_Vector_impl_data" = type { ptr, ptr, ptr }
%"struct.faiss::IndexFlat1D" = type { %"struct.faiss::IndexFlatL2", i8, %"class.std::vector.21" }
%"struct.faiss::IndexFlatL2" = type { %"struct.faiss::IndexFlat", %"class.std::vector.11" }
%"struct.faiss::IndexFlat" = type { %"struct.faiss::IndexFlatCodes" }
%"struct.faiss::IndexFlatCodes" = type { %"struct.faiss::Index.base", i64, %"class.std::vector.16" }
%"struct.faiss::Index.base" = type <{ ptr, i32, [4 x i8], i64, i8, i8, [2 x i8], i32, float }>
%"class.std::vector.16" = type { %"struct.std::_Vector_base.17" }
%"struct.std::_Vector_base.17" = type { %"struct.std::_Vector_base<unsigned char, std::allocator<unsigned char>>::_Vector_impl" }
%"struct.std::_Vector_base<unsigned char, std::allocator<unsigned char>>::_Vector_impl" = type { %"struct.std::_Vector_base<unsigned char, std::allocator<unsigned char>>::_Vector_impl_data" }
%"struct.std::_Vector_base<unsigned char, std::allocator<unsigned char>>::_Vector_impl_data" = type { ptr, ptr, ptr }
%"class.std::vector.21" = type { %"struct.std::_Vector_base.22" }
%"struct.std::_Vector_base.22" = type { %"struct.std::_Vector_base<long, std::allocator<long>>::_Vector_impl" }
%"struct.std::_Vector_base<long, std::allocator<long>>::_Vector_impl" = type { %"struct.std::_Vector_base<long, std::allocator<long>>::_Vector_impl_data" }
%"struct.std::_Vector_base<long, std::allocator<long>>::_Vector_impl_data" = type { ptr, ptr, ptr }
%"struct.faiss::LocalSearchQuantizer" = type <{ %"struct.faiss::AdditiveQuantizer.base", [4 x i8], i64, i64, i64, i64, i64, float, float, i64, i32, [4 x i8], i64, ptr, i8, [7 x i8] }>
%"struct.faiss::AdditiveQuantizer.base" = type <{ %"struct.faiss::Quantizer", i64, %"class.std::vector", %"class.std::vector.11", %"class.std::vector", i64, i64, i64, i8, i8, i8, [5 x i8], %"struct.faiss::IndexFlat1D", %"class.std::vector.11", i64, i32, float, float }>

@1 = private unnamed_addr constant %struct.ident_t { i32 0, i32 514, i32 0, i32 22, ptr @0 }, align 8
@.gomp_critical_user_.reduction.var = common global [8 x i32] zeroinitializer, align 8
@3 = private unnamed_addr constant %struct.ident_t { i32 0, i32 18, i32 0, i32 22, ptr @0 }, align 8

; Function Attrs: mustprogress nounwind uwtable
define linkonce_odr noundef ptr @_ZNKSt6vectorIfSaIfEE11_M_data_ptrIfEEPT_S4_(ptr noundef nonnull align 8 dereferenceable(24) %0, ptr noundef %1) #0 comdat align 2 {
  %3 = alloca ptr, align 8
  %4 = alloca ptr, align 8
  store ptr %0, ptr %3, align 8
  store ptr %1, ptr %4, align 8
  %5 = load ptr, ptr %4, align 8
  ret ptr %5
}

; Function Attrs: mustprogress nounwind uwtable
define linkonce_odr noundef ptr @_ZNKSt6vectorIfSaIfEE4dataEv(ptr noundef nonnull align 8 dereferenceable(24) %0) #0 comdat align 2 {
  %2 = alloca ptr, align 8
  store ptr %0, ptr %2, align 8
  %3 = load ptr, ptr %2, align 8
  %4 = getelementptr inbounds %"struct.std::_Vector_base.12", ptr %3, i32 0, i32 0
  %5 = getelementptr inbounds %"struct.std::_Vector_base<float, std::allocator<float>>::_Vector_impl_data", ptr %4, i32 0, i32 0
  %6 = load ptr, ptr %5, align 8
  %7 = call noundef ptr @_ZNKSt6vectorIfSaIfEE11_M_data_ptrIfEEPT_S4_(ptr noundef nonnull align 8 dereferenceable(24) %3, ptr noundef %6) #4
  ret ptr %7
}

; Function Attrs: mustprogress nounwind uwtable
define linkonce_odr noundef ptr @_ZNSt6vectorIfSaIfEE4dataEv(ptr noundef nonnull align 8 dereferenceable(24) %0) #0 comdat align 2 {
  %2 = alloca ptr, align 8
  store ptr %0, ptr %2, align 8
  %3 = load ptr, ptr %2, align 8
  %4 = getelementptr inbounds %"struct.std::_Vector_base.12", ptr %3, i32 0, i32 0
  %5 = getelementptr inbounds %"struct.std::_Vector_base<float, std::allocator<float>>::_Vector_impl_data", ptr %4, i32 0, i32 0
  %6 = load ptr, ptr %5, align 8
  %7 = call noundef ptr @_ZNKSt6vectorIfSaIfEE11_M_data_ptrIfEEPT_S4_(ptr noundef nonnull align 8 dereferenceable(24) %3, ptr noundef %6) #4
  ret ptr %7
}

; Function Attrs: norecurse nounwind uwtable
define internal void @_ZNK5faiss20LocalSearchQuantizer8evaluateEPKiPKfmPf.omp_outlined(ptr noalias noundef %0, ptr noalias noundef %1, ptr noundef nonnull align 8 dereferenceable(8) %2, ptr noundef nonnull align 8 dereferenceable(8) %3, ptr noundef %4, ptr noundef nonnull align 8 dereferenceable(24) %5, ptr noundef nonnull align 8 dereferenceable(8) %6, ptr noundef nonnull align 4 dereferenceable(4) %7, ptr noundef nonnull align 8 dereferenceable(8) %8) #11 personality ptr @__gxx_personality_v0 {
  %10 = alloca ptr, align 8
  %11 = alloca ptr, align 8
  %12 = alloca ptr, align 8
  %13 = alloca ptr, align 8
  %14 = alloca ptr, align 8
  %15 = alloca ptr, align 8
  %16 = alloca ptr, align 8
  %17 = alloca ptr, align 8
  %18 = alloca ptr, align 8
  %19 = alloca i64, align 8
  %20 = alloca i64, align 8
  %21 = alloca i64, align 8
  %22 = alloca i64, align 8
  %23 = alloca i64, align 8
  %24 = alloca i64, align 8
  %25 = alloca i64, align 8
  %26 = alloca i32, align 4
  %27 = alloca float, align 4
  %28 = alloca i64, align 8
  %29 = alloca ptr, align 8
  %30 = alloca ptr, align 8
  %31 = alloca i64, align 8
  %32 = alloca ptr, align 8
  %33 = alloca float, align 4
  %34 = alloca [1 x ptr], align 8
  store ptr %0, ptr %10, align 8
  store ptr %1, ptr %11, align 8
  store ptr %2, ptr %12, align 8
  store ptr %3, ptr %13, align 8
  store ptr %4, ptr %14, align 8
  store ptr %5, ptr %15, align 8
  store ptr %6, ptr %16, align 8
  store ptr %7, ptr %17, align 8
  store ptr %8, ptr %18, align 8
  %35 = load ptr, ptr %12, align 8
  %36 = load ptr, ptr %13, align 8
  %37 = load ptr, ptr %14, align 8
  %38 = load ptr, ptr %15, align 8
  %39 = load ptr, ptr %16, align 8
  %40 = load ptr, ptr %17, align 8
  %41 = load ptr, ptr %18, align 8
  %42 = load i64, ptr %35, align 8
  store i64 %42, ptr %20, align 8
  %43 = load i64, ptr %20, align 8
  %44 = sub i64 %43, 0
  %45 = udiv i64 %44, 1
  %46 = sub i64 %45, 1
  store i64 %46, ptr %21, align 8
  store i64 0, ptr %22, align 8
  %47 = load i64, ptr %20, align 8
  %48 = icmp ult i64 0, %47
  br i1 %48, label %49, label %161

49:                                               ; preds = %9
  store i64 0, ptr %23, align 8
  %50 = load i64, ptr %21, align 8
  store i64 %50, ptr %24, align 8
  store i64 1, ptr %25, align 8
  store i32 0, ptr %26, align 4
  store float 0.000000e+00, ptr %27, align 4
  %51 = load ptr, ptr %10, align 8
  %52 = load i32, ptr %51, align 4
  call void @__kmpc_for_static_init_8u(ptr @1, i32 %52, i32 34, ptr %26, ptr %23, ptr %24, ptr %25, i64 1, i64 1)
  %53 = load i64, ptr %24, align 8
  %54 = load i64, ptr %21, align 8
  %55 = icmp ugt i64 %53, %54
  br i1 %55, label %56, label %58

56:                                               ; preds = %49
  %57 = load i64, ptr %21, align 8
  br label %60

58:                                               ; preds = %49
  %59 = load i64, ptr %24, align 8
  br label %60

60:                                               ; preds = %58, %56
  %61 = phi i64 [ %57, %56 ], [ %59, %58 ]
  store i64 %61, ptr %24, align 8
  %62 = load i64, ptr %23, align 8
  store i64 %62, ptr %19, align 8
  br label %63

63:                                               ; preds = %142, %60
  %64 = load i64, ptr %19, align 8
  %65 = load i64, ptr %24, align 8
  %66 = add i64 %65, 1
  %67 = icmp ult i64 %64, %66
  br i1 %67, label %68, label %145

68:                                               ; preds = %63
  %69 = load i64, ptr %19, align 8
  %70 = mul i64 %69, 1
  %71 = add i64 0, %70
  store i64 %71, ptr %28, align 8
  %72 = load ptr, ptr %36, align 8
  %73 = load i64, ptr %28, align 8
  %74 = getelementptr inbounds %"struct.faiss::AdditiveQuantizer", ptr %37, i32 0, i32 1
  %75 = load i64, ptr %74, align 8
  %76 = mul i64 %73, %75
  %77 = getelementptr inbounds i32, ptr %72, i64 %76
  store ptr %77, ptr %29, align 8
  %78 = call noundef ptr @_ZNSt6vectorIfSaIfEE4dataEv(ptr noundef nonnull align 8 dereferenceable(24) %38) #4
  %79 = load i64, ptr %28, align 8
  %80 = getelementptr inbounds %"struct.faiss::Quantizer", ptr %37, i32 0, i32 1
  %81 = load i64, ptr %80, align 8
  %82 = mul i64 %79, %81
  %83 = getelementptr inbounds float, ptr %78, i64 %82
  store ptr %83, ptr %30, align 8
  store i64 0, ptr %31, align 8
  br label %84

84:                                               ; preds = %115, %68
  %85 = load i64, ptr %31, align 8
  %86 = getelementptr inbounds %"struct.faiss::AdditiveQuantizer", ptr %37, i32 0, i32 1
  %87 = load i64, ptr %86, align 8
  %88 = icmp ult i64 %85, %87
  br i1 %88, label %89, label %118

89:                                               ; preds = %84
  %90 = getelementptr inbounds %"struct.faiss::AdditiveQuantizer", ptr %37, i32 0, i32 3
  %91 = call noundef ptr @_ZNKSt6vectorIfSaIfEE4dataEv(ptr noundef nonnull align 8 dereferenceable(24) %90) #4
  %92 = load i64, ptr %31, align 8
  %93 = getelementptr inbounds %"struct.faiss::LocalSearchQuantizer", ptr %37, i32 0, i32 2
  %94 = load i64, ptr %93, align 8
  %95 = mul i64 %92, %94
  %96 = getelementptr inbounds %"struct.faiss::Quantizer", ptr %37, i32 0, i32 1
  %97 = load i64, ptr %96, align 8
  %98 = mul i64 %95, %97
  %99 = getelementptr inbounds float, ptr %91, i64 %98
  %100 = load ptr, ptr %29, align 8
  %101 = load i64, ptr %31, align 8
  %102 = getelementptr inbounds i32, ptr %100, i64 %101
  %103 = load i32, ptr %102, align 4
  %104 = sext i32 %103 to i64
  %105 = getelementptr inbounds %"struct.faiss::Quantizer", ptr %37, i32 0, i32 1
  %106 = load i64, ptr %105, align 8
  %107 = mul i64 %104, %106
  %108 = getelementptr inbounds float, ptr %99, i64 %107
  store ptr %108, ptr %32, align 8
  %109 = getelementptr inbounds %"struct.faiss::Quantizer", ptr %37, i32 0, i32 1
  %110 = load i64, ptr %109, align 8
  %111 = load ptr, ptr %30, align 8
  %112 = load ptr, ptr %32, align 8
  %113 = load ptr, ptr %30, align 8
  invoke void @_ZN5faiss8fvec_addEmPKfS1_Pf(i64 noundef %110, ptr noundef %111, ptr noundef %112, ptr noundef %113)
          to label %114 unwind label %162

114:                                              ; preds = %89
  br label %115

115:                                              ; preds = %114
  %116 = load i64, ptr %31, align 8
  %117 = add i64 %116, 1
  store i64 %117, ptr %31, align 8
  br label %84, !llvm.loop !71

118:                                              ; preds = %84
  %119 = load ptr, ptr %39, align 8
  %120 = load i64, ptr %28, align 8
  %121 = getelementptr inbounds %"struct.faiss::Quantizer", ptr %37, i32 0, i32 1
  %122 = load i64, ptr %121, align 8
  %123 = mul i64 %120, %122
  %124 = getelementptr inbounds float, ptr %119, i64 %123
  %125 = load ptr, ptr %30, align 8
  %126 = getelementptr inbounds %"struct.faiss::Quantizer", ptr %37, i32 0, i32 1
  %127 = load i64, ptr %126, align 8
  %128 = invoke noundef float @_ZN5faiss10fvec_L2sqrEPKfS1_m(ptr noundef %124, ptr noundef %125, i64 noundef %127)
          to label %129 unwind label %162

129:                                              ; preds = %118
  store float %128, ptr %33, align 4
  %130 = load float, ptr %33, align 4
  %131 = load float, ptr %27, align 4
  %132 = fadd float %131, %130
  store float %132, ptr %27, align 4
  %133 = load ptr, ptr %41, align 8
  %134 = icmp ne ptr %133, null
  br i1 %134, label %135, label %140

135:                                              ; preds = %129
  %136 = load float, ptr %33, align 4
  %137 = load ptr, ptr %41, align 8
  %138 = load i64, ptr %28, align 8
  %139 = getelementptr inbounds float, ptr %137, i64 %138
  store float %136, ptr %139, align 4
  br label %140

140:                                              ; preds = %135, %129
  br label %141

141:                                              ; preds = %140
  br label %142

142:                                              ; preds = %141
  %143 = load i64, ptr %19, align 8
  %144 = add i64 %143, 1
  store i64 %144, ptr %19, align 8
  br label %63

145:                                              ; preds = %63
  br label %146

146:                                              ; preds = %145
  %147 = load ptr, ptr %10, align 8
  %148 = load i32, ptr %147, align 4
  call void @__kmpc_for_static_fini(ptr @1, i32 %148)
  %149 = getelementptr inbounds [1 x ptr], ptr %34, i64 0, i64 0
  store ptr %27, ptr %149, align 8
  %150 = load ptr, ptr %10, align 8
  %151 = load i32, ptr %150, align 4
  %152 = call i32 @__kmpc_reduce_nowait(ptr @3, i32 %151, i32 1, i64 8, ptr %34, ptr @_ZNK5faiss20LocalSearchQuantizer8evaluateEPKiPKfmPf.omp_outlined.omp.reduction.reduction_func, ptr @.gomp_critical_user_.reduction.var)
  switch i32 %152, label %160 [
    i32 1, label %153
    i32 2, label %157
  ]

153:                                              ; preds = %146
  %154 = load float, ptr %40, align 4
  %155 = load float, ptr %27, align 4
  %156 = fadd float %154, %155
  store float %156, ptr %40, align 4
  call void @__kmpc_end_reduce_nowait(ptr @3, i32 %151, ptr @.gomp_critical_user_.reduction.var)
  br label %160

157:                                              ; preds = %146
  %158 = load float, ptr %27, align 4
  %159 = atomicrmw fadd ptr %40, float %158 monotonic, align 4
  br label %160

160:                                              ; preds = %157, %153, %146
  br label %161

161:                                              ; preds = %160, %9
  ret void

162:                                              ; preds = %118, %89
  %163 = landingpad { ptr, i32 }
          catch ptr null
  %164 = extractvalue { ptr, i32 } %163, 0
  call void @__clang_call_terminate(ptr %164) #20
  unreachable
}