; Function Attrs: norecurse nounwind uwtable
define internal void @_ZNK5faiss20LocalSearchQuantizer8evaluateEPKiPKfmPf.omp_outlined(ptr noalias nocapture noundef readonly %0, ptr noalias nocapture readnone %1, ptr nocapture noundef nonnull readonly align 8 dereferenceable(8) %2, ptr nocapture noundef nonnull readonly align 8 dereferenceable(8) %3, ptr nocapture noundef readonly %4, ptr nocapture noundef nonnull readonly align 8 dereferenceable(24) %5, ptr nocapture noundef nonnull readonly align 8 dereferenceable(8) %6, ptr nocapture noundef nonnull align 4 dereferenceable(4) %7, ptr nocapture noundef nonnull readonly align 8 dereferenceable(8) %8) #11 personality ptr @__gxx_personality_v0 {
  %10 = alloca i64, align 8
  %11 = alloca i64, align 8
  %12 = alloca i64, align 8
  %13 = alloca i32, align 4
  %14 = alloca float, align 4
  %15 = alloca [1 x ptr], align 8
  %16 = load i64, ptr %2, align 8
  %.not = icmp eq i64 %16, 0
  br i1 %.not, label %74, label %17

17:                                               ; preds = %9
  %18 = add i64 %16, -1
  store i64 0, ptr %10, align 8
  store i64 %18, ptr %11, align 8
  store i64 1, ptr %12, align 8
  store i32 0, ptr %13, align 4
  store float 0.000000e+00, ptr %14, align 4
  %19 = load i32, ptr %0, align 4
  call void @__kmpc_for_static_init_8u(ptr nonnull @1, i32 %19, i32 34, ptr nonnull %13, ptr nonnull %10, ptr nonnull %11, ptr nonnull %12, i64 1, i64 1)
  %20 = load i64, ptr %11, align 8
  %21 = call i64 @llvm.umin.i64(i64 %20, i64 %18)
  store i64 %21, ptr %11, align 8
  %22 = load i64, ptr %10, align 8
  %.not42 = icmp ugt i64 %22, %21
  br i1 %.not42, label %._crit_edge39, label %.lr.ph38

.lr.ph38:                                         ; preds = %17
  %23 = getelementptr inbounds i8, ptr %4, i64 24
  %24 = getelementptr inbounds i8, ptr %4, i64 8
  %25 = getelementptr inbounds i8, ptr %4, i64 56
  %26 = getelementptr inbounds i8, ptr %4, i64 312
  br label %27

27:                                               ; preds = %.lr.ph38, %61
  %28 = phi float [ 0.000000e+00, %.lr.ph38 ], [ %57, %61 ]
  %.036 = phi i64 [ %22, %.lr.ph38 ], [ %62, %61 ]
  %29 = load ptr, ptr %3, align 8
  %30 = load i64, ptr %23, align 8
  %31 = mul i64 %30, %.036
  %32 = getelementptr inbounds i32, ptr %29, i64 %31
  %33 = load ptr, ptr %5, align 8
  %34 = load i64, ptr %24, align 8
  %35 = mul i64 %34, %.036
  %36 = getelementptr inbounds float, ptr %33, i64 %35
  %.not40 = icmp eq i64 %30, 0
  br i1 %.not40, label %._crit_edge, label %.lr.ph

.lr.ph:                                           ; preds = %27, %48
  %.03235 = phi i64 [ %49, %48 ], [ 0, %27 ]
  %37 = load ptr, ptr %25, align 8
  %38 = load i64, ptr %26, align 8
  %39 = mul i64 %38, %.03235
  %40 = load i64, ptr %24, align 8
  %41 = mul i64 %39, %40
  %42 = getelementptr inbounds float, ptr %37, i64 %41
  %43 = getelementptr inbounds i32, ptr %32, i64 %.03235
  %44 = load i32, ptr %43, align 4
  %45 = sext i32 %44 to i64
  %46 = mul i64 %40, %45
  %47 = getelementptr inbounds float, ptr %42, i64 %46
  invoke void @_ZN5faiss8fvec_addEmPKfS1_Pf(i64 noundef %40, ptr noundef %36, ptr noundef %47, ptr noundef %36)
          to label %48 unwind label %.loopexit

48:                                               ; preds = %.lr.ph
  %49 = add nuw i64 %.03235, 1
  %50 = load i64, ptr %23, align 8
  %51 = icmp ult i64 %49, %50
  br i1 %51, label %.lr.ph, label %._crit_edge.loopexit, !llvm.loop !77

._crit_edge.loopexit:                             ; preds = %48
  %.pre = load i64, ptr %24, align 8
  %.pre41 = mul i64 %.pre, %.036
  br label %._crit_edge

._crit_edge:                                      ; preds = %._crit_edge.loopexit, %27
  %.pre-phi = phi i64 [ %.pre41, %._crit_edge.loopexit ], [ %35, %27 ]
  %52 = phi i64 [ %.pre, %._crit_edge.loopexit ], [ %34, %27 ]
  %53 = load ptr, ptr %6, align 8
  %54 = getelementptr inbounds float, ptr %53, i64 %.pre-phi
  %55 = invoke noundef float @_ZN5faiss10fvec_L2sqrEPKfS1_m(ptr noundef %54, ptr noundef %36, i64 noundef %52)
          to label %56 unwind label %.loopexit.split-lp

56:                                               ; preds = %._crit_edge
  %57 = fadd float %55, %28
  store float %57, ptr %14, align 4
  %58 = load ptr, ptr %8, align 8
  %.not34 = icmp eq ptr %58, null
  br i1 %.not34, label %61, label %59

59:                                               ; preds = %56
  %60 = getelementptr inbounds float, ptr %58, i64 %.036
  store float %55, ptr %60, align 4
  br label %61

61:                                               ; preds = %59, %56
  %62 = add nuw i64 %.036, 1
  %63 = load i64, ptr %11, align 8
  %64 = add i64 %63, 1
  %65 = icmp ult i64 %62, %64
  br i1 %65, label %27, label %._crit_edge39

._crit_edge39:                                    ; preds = %61, %17
  call void @__kmpc_for_static_fini(ptr nonnull @1, i32 %19)
  store ptr %14, ptr %15, align 8
  %66 = call i32 @__kmpc_reduce_nowait(ptr nonnull @3, i32 %19, i32 1, i64 8, ptr nonnull %15, ptr nonnull @_ZNK5faiss20LocalSearchQuantizer8evaluateEPKiPKfmPf.omp_outlined.omp.reduction.reduction_func, ptr nonnull @.gomp_critical_user_.reduction.var)
  switch i32 %66, label %74 [
    i32 1, label %67
    i32 2, label %71
  ]

67:                                               ; preds = %._crit_edge39
  %68 = load float, ptr %7, align 4
  %69 = load float, ptr %14, align 4
  %70 = fadd float %68, %69
  store float %70, ptr %7, align 4
  call void @__kmpc_end_reduce_nowait(ptr nonnull @3, i32 %19, ptr nonnull @.gomp_critical_user_.reduction.var)
  br label %74

71:                                               ; preds = %._crit_edge39
  %72 = load float, ptr %14, align 4
  %73 = atomicrmw fadd ptr %7, float %72 monotonic, align 4
  br label %74

74:                                               ; preds = %._crit_edge39, %67, %71, %9
  ret void

.loopexit:                                        ; preds = %.lr.ph
  %lpad.loopexit = landingpad { ptr, i32 }
          catch ptr null
  br label %75

.loopexit.split-lp:                               ; preds = %._crit_edge
  %lpad.loopexit.split-lp = landingpad { ptr, i32 }
          catch ptr null
  br label %75

75:                                               ; preds = %.loopexit.split-lp, %.loopexit
  %lpad.phi = phi { ptr, i32 } [ %lpad.loopexit, %.loopexit ], [ %lpad.loopexit.split-lp, %.loopexit.split-lp ]
  %76 = extractvalue { ptr, i32 } %lpad.phi, 0
  call void @__clang_call_terminate(ptr %76) #28
  unreachable
}